target datalayout = "e-m:e-p270:32:32-p271:32:32-p272:64:64-i64:64-i128:128-f80:128-n8:16:32:64-S128"
target triple = "x86_64-pc-linux-gnu"

%struct._zend_array = type { %struct._zend_refcounted_h, %union.anon.0, i32, %union.anon.1, i32, i32, i32, i32, i64, ptr }
%struct._zend_refcounted_h = type { i32, %union.anon }
%union.anon = type { i32 }
%union.anon.0 = type { i32 }
%union.anon.1 = type { ptr }
%struct._zend_string = type { %struct._zend_refcounted_h, i64, i64, [1 x i8] }
%struct._zend_op_array = type { i8, [3 x i8], i32, ptr, ptr, ptr, i32, i32, ptr, ptr, ptr, ptr, i32, i32, i32, i32, ptr, ptr, ptr, ptr, ptr, i32, i32, ptr, ptr, ptr, i32, i32, i32, i32, ptr, ptr, [6 x ptr] }
%struct._zend_cfg = type { i32, i32, ptr, ptr, ptr, i32 }
%struct._zend_basic_block = type { ptr, i32, i32, i32, i32, i32, i32, i32, i32, i32, i32, i32, [2 x i32] }
%struct._zend_class_entry = type { i8, ptr, %union.anon.8, i32, i32, i32, i32, ptr, ptr, ptr, %struct._zend_array, %struct._zend_array, %struct._zend_array, ptr, ptr, ptr, ptr, ptr, ptr, ptr, ptr, ptr, ptr, ptr, ptr, ptr, ptr, ptr, ptr, ptr, ptr, ptr, %union.anon.9, ptr, ptr, ptr, ptr, i32, i32, %union.anon.10, ptr, ptr, ptr, ptr, i32, ptr, ptr, %union.anon.11 }
%union.anon.8 = type { ptr }
%union.anon.9 = type { ptr }
%union.anon.10 = type { ptr }
%union.anon.11 = type { %struct.anon.12 }
%struct.anon.12 = type { ptr, i32, i32 }

@stderr = external global ptr, align 8
@.str.22 = private unnamed_addr constant [3 x i8] c"%s\00", align 1
@.str.70 = private unnamed_addr constant [7 x i8] c"%s::%s\00", align 1
@.str.71 = private unnamed_addr constant [7 x i8] c"$_main\00", align 1
@.str.103 = private unnamed_addr constant [23 x i8] c"\0ADOMINATORS-TREE for \22\00", align 1
@.str.104 = private unnamed_addr constant [3 x i8] c"\22\0A\00", align 1

; Function Attrs: nounwind uwtable
define hidden void @zend_dump_op_array_name(ptr noundef %0) #0 {
  %2 = alloca ptr, align 8
  store ptr %0, ptr %2, align 8
  %3 = load ptr, ptr %2, align 8
  %4 = getelementptr inbounds %struct._zend_op_array, ptr %3, i32 0, i32 3
  %5 = load ptr, ptr %4, align 8
  %6 = icmp ne ptr %5, null
  br i1 %6, label %7, label %43

7:                                                ; preds = %1
  %8 = load ptr, ptr %2, align 8
  %9 = getelementptr inbounds %struct._zend_op_array, ptr %8, i32 0, i32 4
  %10 = load ptr, ptr %9, align 8
  %11 = icmp ne ptr %10, null
  br i1 %11, label %12, label %34

12:                                               ; preds = %7
  %13 = load ptr, ptr %2, align 8
  %14 = getelementptr inbounds %struct._zend_op_array, ptr %13, i32 0, i32 4
  %15 = load ptr, ptr %14, align 8
  %16 = getelementptr inbounds %struct._zend_class_entry, ptr %15, i32 0, i32 1
  %17 = load ptr, ptr %16, align 8
  %18 = icmp ne ptr %17, null
  br i1 %18, label %19, label %34

19:                                               ; preds = %12
  %20 = load ptr, ptr @stderr, align 8
  %21 = load ptr, ptr %2, align 8
  %22 = getelementptr inbounds %struct._zend_op_array, ptr %21, i32 0, i32 4
  %23 = load ptr, ptr %22, align 8
  %24 = getelementptr inbounds %struct._zend_class_entry, ptr %23, i32 0, i32 1
  %25 = load ptr, ptr %24, align 8
  %26 = getelementptr inbounds %struct._zend_string, ptr %25, i32 0, i32 3
  %27 = getelementptr inbounds [1 x i8], ptr %26, i64 0, i64 0
  %28 = load ptr, ptr %2, align 8
  %29 = getelementptr inbounds %struct._zend_op_array, ptr %28, i32 0, i32 3
  %30 = load ptr, ptr %29, align 8
  %31 = getelementptr inbounds %struct._zend_string, ptr %30, i32 0, i32 3
  %32 = getelementptr inbounds [1 x i8], ptr %31, i64 0, i64 0
  %33 = call i32 (ptr, ptr, ...) @fprintf(ptr noundef %20, ptr noundef @.str.70, ptr noundef %27, ptr noundef %32) #4
  br label %42

34:                                               ; preds = %12, %7
  %35 = load ptr, ptr @stderr, align 8
  %36 = load ptr, ptr %2, align 8
  %37 = getelementptr inbounds %struct._zend_op_array, ptr %36, i32 0, i32 3
  %38 = load ptr, ptr %37, align 8
  %39 = getelementptr inbounds %struct._zend_string, ptr %38, i32 0, i32 3
  %40 = getelementptr inbounds [1 x i8], ptr %39, i64 0, i64 0
  %41 = call i32 (ptr, ptr, ...) @fprintf(ptr noundef %35, ptr noundef @.str.22, ptr noundef %40) #4
  br label %42

42:                                               ; preds = %34, %19
  br label %46

43:                                               ; preds = %1
  %44 = load ptr, ptr @stderr, align 8
  %45 = call i32 (ptr, ptr, ...) @fprintf(ptr noundef %44, ptr noundef @.str.22, ptr noundef @.str.71) #4
  br label %46

46:                                               ; preds = %43, %42
  ret void
}

; Function Attrs: nounwind uwtable
define hidden void @zend_dump_dominators(ptr noundef %0, ptr noundef %1) #0 {
  %3 = alloca ptr, align 8
  %4 = alloca ptr, align 8
  %5 = alloca i32, align 4
  %6 = alloca ptr, align 8
  store ptr %0, ptr %3, align 8
  store ptr %1, ptr %4, align 8
  %7 = load ptr, ptr @stderr, align 8
  %8 = call i32 (ptr, ptr, ...) @fprintf(ptr noundef %7, ptr noundef @.str.103) #4
  %9 = load ptr, ptr %3, align 8
  call void @zend_dump_op_array_name(ptr noundef %9)
  %10 = load ptr, ptr @stderr, align 8
  %11 = call i32 (ptr, ptr, ...) @fprintf(ptr noundef %10, ptr noundef @.str.104) #4
  store i32 0, ptr %5, align 4
  br label %12

12:                                               ; preds = %34, %2
  %13 = load i32, ptr %5, align 4
  %14 = load ptr, ptr %4, align 8
  %15 = getelementptr inbounds %struct._zend_cfg, ptr %14, i32 0, i32 0
  %16 = load i32, ptr %15, align 8
  %17 = icmp slt i32 %13, %16
  br i1 %17, label %18, label %37

18:                                               ; preds = %12
  %19 = load ptr, ptr %4, align 8
  %20 = getelementptr inbounds %struct._zend_cfg, ptr %19, i32 0, i32 2
  %21 = load ptr, ptr %20, align 8
  %22 = load i32, ptr %5, align 4
  %23 = sext i32 %22 to i64
  %24 = getelementptr inbounds %struct._zend_basic_block, ptr %21, i64 %23
  store ptr %24, ptr %6, align 8
  %25 = load ptr, ptr %6, align 8
  %26 = getelementptr inbounds %struct._zend_basic_block, ptr %25, i32 0, i32 1
  %27 = load i32, ptr %26, align 8
  %28 = and i32 %27, -2147483648
  %29 = icmp ne i32 %28, 0
  br i1 %29, label %30, label %33

30:                                               ; preds = %18
  %31 = load ptr, ptr %4, align 8
  %32 = load i32, ptr %5, align 4
  call void @zend_dump_block_info(ptr noundef %31, i32 noundef %32, i32 noundef 0)
  br label %33

33:                                               ; preds = %30, %18
  br label %34

34:                                               ; preds = %33
  %35 = load i32, ptr %5, align 4
  %36 = add nsw i32 %35, 1
  store i32 %36, ptr %5, align 4
  br label %12

37:                                               ; preds = %12
  ret void
}