; Function Attrs: nofree nounwind uwtable
define hidden void @zend_dump_dominators(ptr nocapture noundef readonly %0, ptr nocapture noundef readonly %1) local_unnamed_addr #3 {
  %3 = load ptr, ptr @stderr, align 8
  %4 = tail call i64 @fwrite(ptr nonnull @.str.103, i64 22, i64 1, ptr %3) #7
  %5 = getelementptr inbounds i8, ptr %0, i64 8
  %6 = load ptr, ptr %5, align 8
  %.not.i = icmp eq ptr %6, null
  br i1 %.not.i, label %21, label %7

7:                                                ; preds = %2
  %8 = getelementptr inbounds i8, ptr %0, i64 16
  %9 = load ptr, ptr %8, align 8
  %.not8.i = icmp eq ptr %9, null
  br i1 %.not8.i, label %18, label %10

10:                                               ; preds = %7
  %11 = getelementptr inbounds i8, ptr %9, i64 8
  %12 = load ptr, ptr %11, align 8
  %.not9.i = icmp eq ptr %12, null
  br i1 %.not9.i, label %18, label %13

13:                                               ; preds = %10
  %14 = load ptr, ptr @stderr, align 8
  %15 = getelementptr inbounds i8, ptr %12, i64 24
  %16 = getelementptr inbounds i8, ptr %6, i64 24
  %17 = tail call i32 (ptr, ptr, ...) @fprintf(ptr noundef %14, ptr noundef nonnull @.str.70, ptr noundef nonnull %15, ptr noundef nonnull %16) #8
  br label %zend_dump_op_array_name.exit

18:                                               ; preds = %10, %7
  %19 = load ptr, ptr @stderr, align 8
  %20 = getelementptr inbounds i8, ptr %6, i64 24
  %fputs.i = tail call i32 @fputs(ptr nonnull %20, ptr %19) #7
  br label %zend_dump_op_array_name.exit

21:                                               ; preds = %2
  %22 = load ptr, ptr @stderr, align 8
  %23 = tail call i64 @fwrite(ptr nonnull @.str.71, i64 6, i64 1, ptr %22) #7
  br label %zend_dump_op_array_name.exit

zend_dump_op_array_name.exit:                     ; preds = %13, %18, %21
  %24 = load ptr, ptr @stderr, align 8
  %25 = tail call i64 @fwrite(ptr nonnull @.str.104, i64 2, i64 1, ptr %24) #7
  %26 = load i32, ptr %1, align 8
  %27 = icmp sgt i32 %26, 0
  br i1 %27, label %.lr.ph, label %._crit_edge

.lr.ph:                                           ; preds = %zend_dump_op_array_name.exit
  %28 = getelementptr inbounds i8, ptr %1, i64 8
  br label %29

29:                                               ; preds = %.lr.ph, %36
  %30 = phi i32 [ %26, %.lr.ph ], [ %37, %36 ]
  %indvars.iv = phi i64 [ 0, %.lr.ph ], [ %indvars.iv.next, %36 ]
  %31 = load ptr, ptr %28, align 8
  %32 = getelementptr inbounds %struct._zend_basic_block, ptr %31, i64 %indvars.iv, i32 1
  %33 = load i32, ptr %32, align 8
  %.not = icmp sgt i32 %33, -1
  br i1 %.not, label %36, label %34

34:                                               ; preds = %29
  %35 = trunc i64 %indvars.iv to i32
  tail call fastcc void @zend_dump_block_info(ptr noundef nonnull %1, i32 noundef %35, i32 noundef 0)
  %.pre = load i32, ptr %1, align 8
  br label %36

36:                                               ; preds = %29, %34
  %37 = phi i32 [ %30, %29 ], [ %.pre, %34 ]
  %indvars.iv.next = add nuw nsw i64 %indvars.iv, 1
  %38 = sext i32 %37 to i64
  %39 = icmp slt i64 %indvars.iv.next, %38
  br i1 %39, label %29, label %._crit_edge

._crit_edge:                                      ; preds = %36, %zend_dump_op_array_name.exit
  ret void
}